EXPORTS
??0COsiris@@QAE@XZ
??1COsiris@@QAE@XZ
??4COsiris@@QAEAAV0@ABV0@@Z
?ApplyPatchFile@COsiris@@QAE_NPBD0@Z
?CheckOrphanFunctions@COsiris@@IAEXXZ
?ClearGlobalActionList@COsiris@@IAEXXZ
?CloseLogFile@COsiris@@QAEXXZ
?Compile@COsiris@@QAE_NPBD0@Z
?DeleteAllData@COsiris@@QAEXXZ
?Event@COsiris@@QAE_NIPAVCOsiArgumentDesc@@@Z
?GenerateFunctionList@COsiris@@IAEXXZ
?GenerateNodeList@COsiris@@IAEXXZ
?GetFileStoryVersion@COsiris@@QAE_NPBDPAK@Z
?GetFileStoryVersionString@COsiris@@QAE_NPBDPAD@Z
?GetStoryVersion@COsiris@@QAE_NPAK@Z
?GetStoryVersionString@COsiris@@QAE_NPAD@Z
?InitGame@COsiris@@QAE_NXZ
?Load@COsiris@@QAE_NPBD@Z
?Merge@COsiris@@QAE_NXZ
?Minilog_Clear@COsiris@@QAEXXZ
?Minilog_Create@COsiris@@QAE_NK@Z
?Minilog_Expand@COsiris@@QAEKPAEKPADK@Z
?Minilog_GetBufferData@COsiris@@QAE_NPAPAE0PAK@Z
?NoStoryLoaded@COsiris@@QAE_NXZ
?OpenLogFile@COsiris@@QAE_NPBD0@Z
?Osiris@@3VCOsiris@@A
?PrepareMerge@COsiris@@QAE_NXZ
?RegisterDIVFunctions@COsiris@@QAEXPAUTOsirisInitFunction@@@Z
?Save@COsiris@@QAE_NPBD@Z
?SetOption@COsiris@@QAEXI@Z
?_GetDIVHandles@COsiris@@IAE_NXZ
?_ReadDIVObjects@COsiris@@IAE_NAAVCOsiSmartBuf@@@Z
?_ReadFunctions@COsiris@@IAE_NAAVCOsiSmartBuf@@@Z
?_ReadGlobalActionList@COsiris@@IAE_NAAVCOsiSmartBuf@@@Z
?_ReadGoalData@COsiris@@IAE_NAAVCOsiSmartBuf@@@Z
?_ReadHeader@COsiris@@IAE_NAAVCOsiSmartBuf@@AAE111PADAAK@Z
?_ReadReteAdaptors@COsiris@@IAE_NAAVCOsiSmartBuf@@@Z
?_ReadReteDBases@COsiris@@IAE_NAAVCOsiSmartBuf@@@Z
?_ReadReteNodes@COsiris@@IAE_NAAVCOsiSmartBuf@@@Z
?_RunPatchFile@COsiris@@IAE_NPBD0@Z
?_WriteDIVObjects@COsiris@@IAE_NAAVCOsiSmartBuf@@@Z
?_WriteFunctions@COsiris@@IAE_NAAVCOsiSmartBuf@@@Z
?_WriteGlobalActionList@COsiris@@IAE_NAAVCOsiSmartBuf@@@Z
?_WriteGoalData@COsiris@@IAE_NAAVCOsiSmartBuf@@@Z
?_WriteHeader@COsiris@@IAE_NAAVCOsiSmartBuf@@@Z
?_WriteReteAdaptors@COsiris@@IAE_NAAVCOsiSmartBuf@@@Z
?_WriteReteDBases@COsiris@@IAE_NAAVCOsiSmartBuf@@@Z
?_WriteReteNodes@COsiris@@IAE_NAAVCOsiSmartBuf@@@Z
?pMinilog@COsiris@@QAEPAVCOsiMinilog@@XZ